target datalayout = "e-m:e-p270:32:32-p271:32:32-p272:64:64-i64:64-i128:128-f80:128-n8:16:32:64-S128"
target triple = "x86_64-pc-linux-gnu"

%struct._zend_alloc_globals = type { ptr }
%struct._zend_mm_heap = type { i32, ptr, i64, i64, [30 x ptr], i64, i64, i64, i32, ptr, ptr, ptr, i32, i32, i32, double, i32, i32, %struct.anon, ptr }
%struct.anon = type { ptr, ptr, ptr }

@alloc_globals = internal global %struct._zend_alloc_globals zeroinitializer, align 8

; Function Attrs: nounwind allocsize(0) uwtable
define noalias ptr @_emalloc_huge(i64 noundef %0) #7 {
  %2 = alloca ptr, align 8
  %3 = alloca i64, align 8
  store i64 %0, ptr %3, align 8
  br label %4

4:                                                ; preds = %1
  %5 = load ptr, ptr @alloc_globals, align 8
  %6 = getelementptr inbounds %struct._zend_mm_heap, ptr %5, i32 0, i32 0
  %7 = load i32, ptr %6, align 8
  %8 = icmp ne i32 %7, 0
  %9 = xor i1 %8, true
  %10 = xor i1 %9, true
  %11 = zext i1 %10 to i32
  %12 = sext i32 %11 to i64
  %13 = icmp ne i64 %12, 0
  br i1 %13, label %14, label %21

14:                                               ; preds = %4
  %15 = load ptr, ptr @alloc_globals, align 8
  %16 = getelementptr inbounds %struct._zend_mm_heap, ptr %15, i32 0, i32 18
  %17 = getelementptr inbounds %struct.anon, ptr %16, i32 0, i32 0
  %18 = load ptr, ptr %17, align 8
  %19 = load i64, ptr %3, align 8
  %20 = call ptr %18(i64 noundef %19)
  store ptr %20, ptr %2, align 8
  br label %26

21:                                               ; preds = %4
  br label %22

22:                                               ; preds = %21
  %23 = load ptr, ptr @alloc_globals, align 8
  %24 = load i64, ptr %3, align 8
  %25 = call ptr @zend_mm_alloc_huge(ptr noundef %23, i64 noundef %24)
  store ptr %25, ptr %2, align 8
  br label %26

26:                                               ; preds = %22, %14
  %27 = load ptr, ptr %2, align 8
  ret ptr %27
}