; Function Attrs: nounwind allocsize(0) uwtable
define noalias ptr @_emalloc_huge(i64 noundef %0) local_unnamed_addr #9 {
  %2 = load ptr, ptr @alloc_globals.0, align 8
  %3 = load i32, ptr %2, align 8
  %.not = icmp eq i32 %3, 0
  br i1 %.not, label %8, label %4

4:                                                ; preds = %1
  %5 = getelementptr inbounds i8, ptr %2, i64 360
  %6 = load ptr, ptr %5, align 8
  %7 = tail call ptr %6(i64 noundef %0) #35
  br label %10

8:                                                ; preds = %1
  %9 = tail call fastcc ptr @zend_mm_alloc_huge(ptr noundef nonnull %2, i64 noundef %0)
  br label %10

10:                                               ; preds = %8, %4
  %.0 = phi ptr [ %7, %4 ], [ %9, %8 ]
  ret ptr %.0
}